target datalayout = "e-m:e-p270:32:32-p271:32:32-p272:64:64-i64:64-i128:128-f80:128-n8:16:32:64-S128"
target triple = "x86_64-pc-linux-gnu"

%struct.RBasic = type { i64, i64 }
%struct.RRational = type { %struct.RBasic, i64, i64 }

@ruby_current_ec = external thread_local global ptr, align 8
@.str.47 = private unnamed_addr constant [23 x i8] c"../internal/rational.h\00", align 1

; Function Attrs: inlinehint nounwind sspstrong willreturn memory(none) uwtable
define internal zeroext i1 @RB_IMMEDIATE_P(i64 noundef %0) #8 {
  %2 = alloca i64, align 8
  store i64 %0, ptr %2, align 8, !tbaa !7
  %3 = load i64, ptr %2, align 8, !tbaa !7
  %4 = and i64 %3, 7
  %5 = icmp ne i64 %4, 0
  ret i1 %5
}

; Function Attrs: inlinehint nounwind sspstrong willreturn memory(read) uwtable
define internal i64 @RB_FL_TEST_RAW(i64 noundef %0, i64 noundef %1) #5 {
  %3 = alloca i64, align 8
  %4 = alloca i64, align 8
  store i64 %0, ptr %3, align 8, !tbaa !7
  store i64 %1, ptr %4, align 8, !tbaa !7
  %5 = load i64, ptr %3, align 8, !tbaa !7
  %6 = inttoptr i64 %5 to ptr
  %7 = getelementptr inbounds nuw %struct.RBasic, ptr %6, i32 0, i32 0
  %8 = load i64, ptr %7, align 8, !tbaa !12
  %9 = load i64, ptr %4, align 8, !tbaa !7
  %10 = and i64 %8, %9
  ret i64 %10
}

; Function Attrs: inlinehint nounwind sspstrong willreturn memory(none) uwtable
define internal zeroext i1 @RB_SPECIAL_CONST_P(i64 noundef %0) #8 {
  %2 = alloca i64, align 8
  store i64 %0, ptr %2, align 8, !tbaa !7
  %3 = load i64, ptr %2, align 8, !tbaa !7
  %4 = icmp eq i64 %3, 0
  br i1 %4, label %8, label %5

5:                                                ; preds = %1
  %6 = load i64, ptr %2, align 8, !tbaa !7
  %7 = call zeroext i1 @RB_IMMEDIATE_P(i64 noundef %6) #23
  br label %8

8:                                                ; preds = %5, %1
  %9 = phi i1 [ true, %1 ], [ %7, %5 ]
  ret i1 %9
}

; Function Attrs: inlinehint nounwind sspstrong uwtable
define internal zeroext i1 @BIGNUM_SIGN(i64 noundef %0) #3 {
  %2 = alloca i64, align 8
  store i64 %0, ptr %2, align 8, !tbaa !7
  %3 = load i64, ptr %2, align 8, !tbaa !7
  %4 = call i64 @RB_FL_TEST_RAW(i64 noundef %3, i64 noundef 8192) #22
  %5 = icmp ne i64 %4, 0
  ret i1 %5
}

; Function Attrs: inlinehint nounwind sspstrong uwtable
define internal i64 @rb_obj_written(i64 noundef %0, i64 noundef %1, i64 noundef %2, ptr noundef %3, i32 noundef %4) #3 {
  %6 = alloca i64, align 8
  %7 = alloca i64, align 8
  %8 = alloca i64, align 8
  %9 = alloca ptr, align 8
  %10 = alloca i32, align 4
  store i64 %0, ptr %6, align 8, !tbaa !7
  store i64 %1, ptr %7, align 8, !tbaa !7
  store i64 %2, ptr %8, align 8, !tbaa !7
  store ptr %3, ptr %9, align 8, !tbaa !36
  store i32 %4, ptr %10, align 4, !tbaa !14
  %11 = load i64, ptr %8, align 8, !tbaa !7
  %12 = call zeroext i1 @RB_SPECIAL_CONST_P(i64 noundef %11) #23
  br i1 %12, label %16, label %13

13:                                               ; preds = %5
  %14 = load i64, ptr %6, align 8, !tbaa !7
  %15 = load i64, ptr %8, align 8, !tbaa !7
  call void @rb_gc_writebarrier(i64 noundef %14, i64 noundef %15)
  br label %16

16:                                               ; preds = %13, %5
  %17 = load i64, ptr %6, align 8, !tbaa !7
  ret i64 %17
}

; Function Attrs: inlinehint nounwind sspstrong uwtable
define internal zeroext i1 @BIGNUM_POSITIVE_P(i64 noundef %0) #3 {
  %2 = alloca i64, align 8
  store i64 %0, ptr %2, align 8, !tbaa !7
  %3 = load i64, ptr %2, align 8, !tbaa !7
  %4 = call zeroext i1 @BIGNUM_SIGN(i64 noundef %3)
  ret i1 %4
}

; Function Attrs: inlinehint nounwind sspstrong uwtable
define internal i64 @rb_obj_write(i64 noundef %0, ptr noundef %1, i64 noundef %2, ptr noundef %3, i32 noundef %4) #3 {
  %6 = alloca i64, align 8
  %7 = alloca ptr, align 8
  %8 = alloca i64, align 8
  %9 = alloca ptr, align 8
  %10 = alloca i32, align 4
  store i64 %0, ptr %6, align 8, !tbaa !7
  store ptr %1, ptr %7, align 8, !tbaa !28
  store i64 %2, ptr %8, align 8, !tbaa !7
  store ptr %3, ptr %9, align 8, !tbaa !36
  store i32 %4, ptr %10, align 4, !tbaa !14
  %11 = load i64, ptr %8, align 8, !tbaa !7
  %12 = load ptr, ptr %7, align 8, !tbaa !28
  store i64 %11, ptr %12, align 8, !tbaa !7
  %13 = load i64, ptr %6, align 8, !tbaa !7
  %14 = load i64, ptr %8, align 8, !tbaa !7
  %15 = load ptr, ptr %9, align 8, !tbaa !36
  %16 = load i32, ptr %10, align 4, !tbaa !14
  %17 = call i64 @rb_obj_written(i64 noundef %13, i64 noundef 36, i64 noundef %14, ptr noundef %15, i32 noundef %16)
  %18 = load i64, ptr %6, align 8, !tbaa !7
  ret i64 %18
}

; Function Attrs: inlinehint nounwind sspstrong uwtable
define internal zeroext i1 @BIGNUM_NEGATIVE_P(i64 noundef %0) #3 {
  %2 = alloca i64, align 8
  store i64 %0, ptr %2, align 8, !tbaa !7
  %3 = load i64, ptr %2, align 8, !tbaa !7
  %4 = call zeroext i1 @BIGNUM_POSITIVE_P(i64 noundef %3)
  %5 = xor i1 %4, true
  ret i1 %5
}

; Function Attrs: inlinehint nounwind sspstrong uwtable
define internal zeroext i1 @FIXNUM_NEGATIVE_P(i64 noundef %0) #3 {
  %2 = alloca i64, align 8
  store i64 %0, ptr %2, align 8, !tbaa !7
  %3 = load i64, ptr %2, align 8, !tbaa !7
  %4 = icmp slt i64 %3, 0
  ret i1 %4
}

; Function Attrs: inlinehint nounwind sspstrong uwtable
define internal void @RATIONAL_SET_DEN(i64 noundef %0, i64 noundef %1) #3 {
  %3 = alloca i64, align 8
  %4 = alloca i64, align 8
  store i64 %0, ptr %3, align 8, !tbaa !7
  store i64 %1, ptr %4, align 8, !tbaa !7
  %5 = load i64, ptr %3, align 8, !tbaa !7
  %6 = load i64, ptr %3, align 8, !tbaa !7
  %7 = inttoptr i64 %6 to ptr
  %8 = getelementptr inbounds nuw %struct.RRational, ptr %7, i32 0, i32 2
  %9 = load i64, ptr %4, align 8, !tbaa !7
  %10 = call i64 @rb_obj_write(i64 noundef %5, ptr noundef %8, i64 noundef %9, ptr noundef @.str.47, i32 noundef 68)
  ret void
}

; Function Attrs: inlinehint nounwind sspstrong uwtable
define internal void @RATIONAL_SET_NUM(i64 noundef %0, i64 noundef %1) #3 {
  %3 = alloca i64, align 8
  %4 = alloca i64, align 8
  store i64 %0, ptr %3, align 8, !tbaa !7
  store i64 %1, ptr %4, align 8, !tbaa !7
  %5 = load i64, ptr %3, align 8, !tbaa !7
  %6 = load i64, ptr %3, align 8, !tbaa !7
  %7 = inttoptr i64 %6 to ptr
  %8 = getelementptr inbounds nuw %struct.RRational, ptr %7, i32 0, i32 1
  %9 = load i64, ptr %4, align 8, !tbaa !7
  %10 = call i64 @rb_obj_write(i64 noundef %5, ptr noundef %8, i64 noundef %9, ptr noundef @.str.47, i32 noundef 60)
  ret void
}

; Function Attrs: inlinehint nounwind sspstrong uwtable
define internal ptr @rb_current_execution_context(i1 noundef zeroext %0) #3 {
  %2 = alloca i8, align 1
  %3 = alloca ptr, align 8
  %4 = zext i1 %0 to i8
  store i8 %4, ptr %2, align 1, !tbaa !24
  call void @llvm.lifetime.start.p0(i64 8, ptr %3) #21
  %5 = call align 8 ptr @llvm.threadlocal.address.p0(ptr align 8 @ruby_current_ec)
  %6 = load ptr, ptr %5, align 8, !tbaa !51
  store ptr %6, ptr %3, align 8, !tbaa !51
  %7 = load ptr, ptr %3, align 8, !tbaa !51
  call void @llvm.lifetime.end.p0(i64 8, ptr %3) #21
  ret ptr %7
}

; Function Attrs: inlinehint nounwind sspstrong uwtable
define internal zeroext i1 @FIXNUM_ZERO_P(i64 noundef %0) #3 {
  %2 = alloca i64, align 8
  store i64 %0, ptr %2, align 8, !tbaa !7
  %3 = load i64, ptr %2, align 8, !tbaa !7
  %4 = icmp eq i64 %3, 1
  ret i1 %4
}

; Function Attrs: inlinehint nounwind sspstrong willreturn memory(none) uwtable
define internal zeroext i1 @RB_FIXNUM_P(i64 noundef %0) #8 {
  %2 = alloca i64, align 8
  store i64 %0, ptr %2, align 8, !tbaa !7
  %3 = load i64, ptr %2, align 8, !tbaa !7
  %4 = and i64 %3, 1
  %5 = icmp ne i64 %4, 0
  ret i1 %5
}

; Function Attrs: inlinehint nounwind sspstrong uwtable
define internal zeroext i1 @INT_NEGATIVE_P(i64 noundef %0) #3 {
  %2 = alloca i1, align 1
  %3 = alloca i64, align 8
  store i64 %0, ptr %3, align 8, !tbaa !7
  %4 = load i64, ptr %3, align 8, !tbaa !7
  %5 = call zeroext i1 @RB_FIXNUM_P(i64 noundef %4) #23
  br i1 %5, label %6, label %9

6:                                                ; preds = %1
  %7 = load i64, ptr %3, align 8, !tbaa !7
  %8 = call zeroext i1 @FIXNUM_NEGATIVE_P(i64 noundef %7)
  store i1 %8, ptr %2, align 1
  br label %12

9:                                                ; preds = %1
  %10 = load i64, ptr %3, align 8, !tbaa !7
  %11 = call zeroext i1 @BIGNUM_NEGATIVE_P(i64 noundef %10)
  store i1 %11, ptr %2, align 1
  br label %12

12:                                               ; preds = %9, %6
  %13 = load i1, ptr %2, align 1
  ret i1 %13
}

; Function Attrs: inlinehint nounwind sspstrong uwtable
define internal i64 @nurat_s_new_internal(i64 noundef %0, i64 noundef %1, i64 noundef %2) #3 {
  %4 = alloca i64, align 8
  %5 = alloca i64, align 8
  %6 = alloca i64, align 8
  %7 = alloca ptr, align 8
  store i64 %0, ptr %4, align 8, !tbaa !7
  store i64 %1, ptr %5, align 8, !tbaa !7
  store i64 %2, ptr %6, align 8, !tbaa !7
  call void @llvm.lifetime.start.p0(i64 8, ptr %7) #21
  %8 = call ptr @rb_current_execution_context(i1 noundef zeroext true)
  %9 = load i64, ptr %4, align 8, !tbaa !7
  %10 = call i64 @rb_wb_protected_newobj_of(ptr noundef %8, i64 noundef %9, i64 noundef 15, i64 noundef 32)
  %11 = inttoptr i64 %10 to ptr
  store ptr %11, ptr %7, align 8, !tbaa !16
  %12 = load ptr, ptr %7, align 8, !tbaa !16
  %13 = ptrtoint ptr %12 to i64
  %14 = load i64, ptr %5, align 8, !tbaa !7
  call void @RATIONAL_SET_NUM(i64 noundef %13, i64 noundef %14)
  %15 = load ptr, ptr %7, align 8, !tbaa !16
  %16 = ptrtoint ptr %15 to i64
  %17 = load i64, ptr %6, align 8, !tbaa !7
  call void @RATIONAL_SET_DEN(i64 noundef %16, i64 noundef %17)
  %18 = load ptr, ptr %7, align 8, !tbaa !16
  %19 = ptrtoint ptr %18 to i64
  call void @rb_obj_freeze_inline(i64 noundef %19)
  %20 = load ptr, ptr %7, align 8, !tbaa !16
  %21 = ptrtoint ptr %20 to i64
  call void @llvm.lifetime.end.p0(i64 8, ptr %7) #21
  ret i64 %21
}

; Function Attrs: nounwind sspstrong uwtable
define internal void @nurat_canonicalize(ptr noundef %0, ptr noundef %1) #0 {
  %3 = alloca ptr, align 8
  %4 = alloca ptr, align 8
  store ptr %0, ptr %3, align 8, !tbaa !28
  store ptr %1, ptr %4, align 8, !tbaa !28
  %5 = load ptr, ptr %4, align 8, !tbaa !28
  %6 = load i64, ptr %5, align 8, !tbaa !7
  %7 = call zeroext i1 @INT_NEGATIVE_P(i64 noundef %6)
  br i1 %7, label %8, label %17

8:                                                ; preds = %2
  %9 = load ptr, ptr %3, align 8, !tbaa !28
  %10 = load i64, ptr %9, align 8, !tbaa !7
  %11 = call i64 @rb_int_uminus(i64 noundef %10)
  %12 = load ptr, ptr %3, align 8, !tbaa !28
  store i64 %11, ptr %12, align 8, !tbaa !7
  %13 = load ptr, ptr %4, align 8, !tbaa !28
  %14 = load i64, ptr %13, align 8, !tbaa !7
  %15 = call i64 @rb_int_uminus(i64 noundef %14)
  %16 = load ptr, ptr %4, align 8, !tbaa !28
  store i64 %15, ptr %16, align 8, !tbaa !7
  br label %32

17:                                               ; preds = %2
  %18 = load ptr, ptr %4, align 8, !tbaa !28
  %19 = load i64, ptr %18, align 8, !tbaa !7
  %20 = call zeroext i1 @RB_FIXNUM_P(i64 noundef %19) #23
  br i1 %20, label %21, label %25

21:                                               ; preds = %17
  %22 = load ptr, ptr %4, align 8, !tbaa !28
  %23 = load i64, ptr %22, align 8, !tbaa !7
  %24 = call zeroext i1 @FIXNUM_ZERO_P(i64 noundef %23)
  br i1 %24, label %30, label %31

25:                                               ; preds = %17
  %26 = load ptr, ptr %4, align 8, !tbaa !28
  %27 = load i64, ptr %26, align 8, !tbaa !7
  %28 = call i32 @rb_bigzero_p(i64 noundef %27)
  %29 = icmp ne i32 %28, 0
  br i1 %29, label %30, label %31

30:                                               ; preds = %25, %21
  call void @rb_num_zerodiv() #24
  unreachable

31:                                               ; preds = %25, %21
  br label %32

32:                                               ; preds = %31, %8
  ret void
}

; Function Attrs: inlinehint nounwind sspstrong uwtable
define internal i64 @nurat_s_canonicalize_internal_no_reduce(i64 noundef %0, i64 noundef %1, i64 noundef %2) #3 {
  %4 = alloca i64, align 8
  %5 = alloca i64, align 8
  %6 = alloca i64, align 8
  store i64 %0, ptr %4, align 8, !tbaa !7
  store i64 %1, ptr %5, align 8, !tbaa !7
  store i64 %2, ptr %6, align 8, !tbaa !7
  call void @nurat_canonicalize(ptr noundef %5, ptr noundef %6)
  %7 = load i64, ptr %4, align 8, !tbaa !7
  %8 = load i64, ptr %5, align 8, !tbaa !7
  %9 = load i64, ptr %6, align 8, !tbaa !7
  %10 = call i64 @nurat_s_new_internal(i64 noundef %7, i64 noundef %8, i64 noundef %9)
  ret i64 %10
}