; Function Attrs: inlinehint nounwind sspstrong uwtable
define internal fastcc i64 @nurat_s_canonicalize_internal_no_reduce(i64 noundef %0, i64 noundef %1, i64 noundef %2) unnamed_addr #4 {
  %4 = and i64 %2, 1
  %.not.i.i = icmp eq i64 %4, 0
  br i1 %.not.i.i, label %INT_NEGATIVE_P.exit.i, label %5

5:                                                ; preds = %3
  %6 = icmp slt i64 %2, 0
  br i1 %6, label %10, label %13

INT_NEGATIVE_P.exit.i:                            ; preds = %3
  %7 = inttoptr i64 %2 to ptr
  %8 = load i64, ptr %7, align 8, !tbaa !7
  %9 = and i64 %8, 8192
  %.not.i.i.i = icmp eq i64 %9, 0
  br i1 %.not.i.i.i, label %10, label %15

10:                                               ; preds = %INT_NEGATIVE_P.exit.i, %5
  %11 = tail call i64 @rb_int_uminus(i64 noundef %1) #17
  %12 = tail call i64 @rb_int_uminus(i64 noundef %2) #17
  br label %nurat_canonicalize.exit

13:                                               ; preds = %5
  %14 = icmp eq i64 %2, 1
  br i1 %14, label %17, label %nurat_canonicalize.exit

15:                                               ; preds = %INT_NEGATIVE_P.exit.i
  %16 = tail call i32 @rb_bigzero_p(i64 noundef %2) #17
  %.not.i = icmp eq i32 %16, 0
  br i1 %.not.i, label %nurat_canonicalize.exit, label %17

17:                                               ; preds = %15, %13
  tail call void @rb_num_zerodiv() #19
  unreachable

nurat_canonicalize.exit:                          ; preds = %10, %13, %15
  %.05 = phi i64 [ %11, %10 ], [ %1, %15 ], [ %1, %13 ]
  %.0 = phi i64 [ %12, %10 ], [ %2, %15 ], [ %2, %13 ]
  %18 = tail call align 8 ptr @llvm.threadlocal.address.p0(ptr align 8 @ruby_current_ec)
  %19 = load ptr, ptr %18, align 8, !tbaa !25
  %20 = tail call i64 @rb_wb_protected_newobj_of(ptr noundef %19, i64 noundef %0, i64 noundef 15, i64 noundef 32) #17
  %21 = inttoptr i64 %20 to ptr
  %22 = getelementptr inbounds nuw i8, ptr %21, i64 16
  store i64 %.05, ptr %22, align 8, !tbaa !18
  %23 = icmp eq i64 %.05, 0
  %24 = and i64 %.05, 7
  %25 = icmp ne i64 %24, 0
  %26 = or i1 %23, %25
  br i1 %26, label %RATIONAL_SET_NUM.exit.i, label %27

27:                                               ; preds = %nurat_canonicalize.exit
  tail call void @rb_gc_writebarrier(i64 noundef %20, i64 noundef %.05) #17
  br label %RATIONAL_SET_NUM.exit.i

RATIONAL_SET_NUM.exit.i:                          ; preds = %27, %nurat_canonicalize.exit
  %28 = getelementptr inbounds nuw i8, ptr %21, i64 24
  store i64 %.0, ptr %28, align 8, !tbaa !18
  %29 = icmp eq i64 %.0, 0
  %30 = and i64 %.0, 7
  %31 = icmp ne i64 %30, 0
  %32 = or i1 %29, %31
  br i1 %32, label %nurat_s_new_internal.exit, label %33

33:                                               ; preds = %RATIONAL_SET_NUM.exit.i
  tail call void @rb_gc_writebarrier(i64 noundef %20, i64 noundef %.0) #17
  br label %nurat_s_new_internal.exit

nurat_s_new_internal.exit:                        ; preds = %RATIONAL_SET_NUM.exit.i, %33
  tail call void @rb_obj_freeze_inline(i64 noundef %20) #17
  ret i64 %20
}